target datalayout = "e-m:e-p270:32:32-p271:32:32-p272:64:64-i64:64-i128:128-f80:128-n8:16:32:64-S128"
target triple = "x86_64-unknown-linux-gnu"

%struct.HIDState = type { %union.anon, i32, i32, i32, i32, i8, i8, ptr, ptr, ptr }
%union.anon = type { %struct.HIDMouseState }
%struct.HIDMouseState = type { [16 x %struct.HIDPointerEvent], i32 }
%struct.HIDPointerEvent = type { i32, i32, i32, i32 }
%struct.HIDKeyboardState = type { [16 x i32], i16, i8, [16 x i8], i32 }

; Function Attrs: nounwind sspstrong uwtable
define dso_local i32 @hid_keyboard_write(ptr noundef %hs, ptr noundef %buf, i32 noundef %len) #0 {
entry:
  %hs.addr = alloca ptr, align 8
  %buf.addr = alloca ptr, align 8
  %len.addr = alloca i32, align 4
  %ledstate = alloca i32, align 4
  store ptr %hs, ptr %hs.addr, align 8
  store ptr %buf, ptr %buf.addr, align 8
  store i32 %len, ptr %len.addr, align 4
  %0 = load i32, ptr %len.addr, align 4
  %cmp = icmp sgt i32 %0, 0
  br i1 %cmp, label %if.then, label %if.end17

if.then:                                          ; preds = %entry
  store i32 0, ptr %ledstate, align 4
  %1 = load ptr, ptr %buf.addr, align 8
  %arrayidx = getelementptr i8, ptr %1, i64 0
  %2 = load i8, ptr %arrayidx, align 1
  %3 = load ptr, ptr %hs.addr, align 8
  %4 = getelementptr inbounds %struct.HIDState, ptr %3, i32 0, i32 0
  %leds = getelementptr inbounds %struct.HIDKeyboardState, ptr %4, i32 0, i32 2
  store i8 %2, ptr %leds, align 2
  %5 = load ptr, ptr %hs.addr, align 8
  %6 = getelementptr inbounds %struct.HIDState, ptr %5, i32 0, i32 0
  %leds1 = getelementptr inbounds %struct.HIDKeyboardState, ptr %6, i32 0, i32 2
  %7 = load i8, ptr %leds1, align 2
  %conv = zext i8 %7 to i32
  %and = and i32 %conv, 4
  %tobool = icmp ne i32 %and, 0
  br i1 %tobool, label %if.then2, label %if.end

if.then2:                                         ; preds = %if.then
  %8 = load i32, ptr %ledstate, align 4
  %or = or i32 %8, 1
  store i32 %or, ptr %ledstate, align 4
  br label %if.end

if.end:                                           ; preds = %if.then2, %if.then
  %9 = load ptr, ptr %hs.addr, align 8
  %10 = getelementptr inbounds %struct.HIDState, ptr %9, i32 0, i32 0
  %leds3 = getelementptr inbounds %struct.HIDKeyboardState, ptr %10, i32 0, i32 2
  %11 = load i8, ptr %leds3, align 2
  %conv4 = zext i8 %11 to i32
  %and5 = and i32 %conv4, 1
  %tobool6 = icmp ne i32 %and5, 0
  br i1 %tobool6, label %if.then7, label %if.end9

if.then7:                                         ; preds = %if.end
  %12 = load i32, ptr %ledstate, align 4
  %or8 = or i32 %12, 2
  store i32 %or8, ptr %ledstate, align 4
  br label %if.end9

if.end9:                                          ; preds = %if.then7, %if.end
  %13 = load ptr, ptr %hs.addr, align 8
  %14 = getelementptr inbounds %struct.HIDState, ptr %13, i32 0, i32 0
  %leds10 = getelementptr inbounds %struct.HIDKeyboardState, ptr %14, i32 0, i32 2
  %15 = load i8, ptr %leds10, align 2
  %conv11 = zext i8 %15 to i32
  %and12 = and i32 %conv11, 2
  %tobool13 = icmp ne i32 %and12, 0
  br i1 %tobool13, label %if.then14, label %if.end16

if.then14:                                        ; preds = %if.end9
  %16 = load i32, ptr %ledstate, align 4
  %or15 = or i32 %16, 4
  store i32 %or15, ptr %ledstate, align 4
  br label %if.end16

if.end16:                                         ; preds = %if.then14, %if.end9
  %17 = load i32, ptr %ledstate, align 4
  call void @kbd_put_ledstate(i32 noundef %17)
  br label %if.end17

if.end17:                                         ; preds = %if.end16, %entry
  ret i32 0
}