; Function Attrs: nounwind sspstrong uwtable
define dso_local noundef i32 @hid_keyboard_write(ptr noundef writeonly captures(none) %hs, ptr noundef readonly captures(none) %buf, i32 noundef %len) local_unnamed_addr #1 {
entry:
  %cmp = icmp sgt i32 %len, 0
  br i1 %cmp, label %if.then, label %if.end17

if.then:                                          ; preds = %entry
  %0 = load i8, ptr %buf, align 1
  %leds = getelementptr inbounds nuw i8, ptr %hs, i64 66
  store i8 %0, ptr %leds, align 2
  %1 = lshr i8 %0, 2
  %.lobit = and i8 %1, 1
  %2 = shl i8 %0, 1
  %3 = and i8 %2, 6
  %ledstate.28 = or disjoint i8 %.lobit, %3
  %ledstate.2 = zext nneg i8 %ledstate.28 to i32
  tail call void @kbd_put_ledstate(i32 noundef %ledstate.2) #11
  br label %if.end17

if.end17:                                         ; preds = %if.then, %entry
  ret i32 0
}